Certificate:
    Data:
        Version: 3 (0x2)
        Serial Number:
            74:16:24:44:11:6d:f2:36:9c:d3:4c:4b:de:c3:ac:98:25:88:ff:33
        Signature Algorithm: sha256WithRSAEncryption
        Issuer: C = FR, ST = IDF, L = Paris, O = NodeOPCUA, OU = Unit, CN = NodeOPCUA-TEST
        Validity
            Not Before: Feb 28 08:54:51 2023 GMT
            Not After : Feb 24 08:54:51 2038 GMT
        Subject: C = FR, ST = IDF, L = Paris, O = NodeOPCUA, OU = Unit, CN = NodeOPCUA-TEST
        Subject Public Key Info:
            Public Key Algorithm: rsaEncryption
                RSA Public-Key: (2048 bit)
                Modulus:
                    00:ae:12:f4:31:1b:51:4a:36:11:48:45:40:ca:70:
                    7a:76:91:09:e4:cf:f6:1e:6e:c4:69:b5:1a:92:75:
                    73:3e:a6:46:2b:0d:f0:62:59:ae:77:d2:2f:cb:9b:
                    94:de:fb:cb:97:57:41:22:52:82:5e:b9:96:ff:87:
                    7b:5f:88:dd:c9:bd:56:59:80:13:38:ca:6b:f2:ed:
                    18:61:2a:89:56:f1:1b:47:9b:a2:72:e9:68:f1:66:
                    24:8a:a0:c8:bd:dd:0b:65:1b:b7:52:64:df:f8:02:
                    8c:f5:c3:e5:03:74:71:4f:1a:c7:57:9b:b5:4b:b7:
                    3f:ab:48:39:73:48:36:b7:99:a5:76:e7:fa:4f:36:
                    b5:ca:30:1e:0f:15:d0:be:e9:bd:6c:10:8a:f2:e5:
                    55:96:fd:6e:33:5c:45:97:0f:92:b9:39:9f:6d:1a:
                    3a:52:6f:f6:33:b1:5e:7c:b4:ee:f7:42:ad:f9:01:
                    e9:9a:d0:ec:ed:93:32:4b:71:b3:29:41:c3:fe:c2:
                    33:42:68:a2:19:3b:6e:2b:a7:5d:2c:ee:8d:3e:b8:
                    07:ee:57:7a:2c:20:dd:e6:6b:4d:c7:73:4e:46:39:
                    e4:4d:b1:03:a2:35:bb:7b:a6:ae:ce:06:15:52:bf:
                    9e:a6:cb:14:39:9c:ef:ac:72:fd:87:25:46:74:41:
                    20:8f
                Exponent: 65537 (0x10001)
        X509v3 extensions:
            X509v3 Subject Key Identifier: 
                73:29:66:83:40:BB:20:8A:89:1A:53:CC:41:2E:E0:71:CC:0B:09:62
            X509v3 Authority Key Identifier: 
                keyid:73:29:66:83:40:BB:20:8A:89:1A:53:CC:41:2E:E0:71:CC:0B:09:62

            X509v3 Basic Constraints: critical
                CA:FALSE
            X509v3 Key Usage: 
                Digital Signature, Non Repudiation, Key Encipherment, Data Encipherment, Certificate Sign
            X509v3 Extended Key Usage: 
                TLS Web Client Authentication, TLS Web Server Authentication
            Netscape Comment: 
                Self-signed certificate generated by Node-OPCUA Certificate utility
            X509v3 Subject Alternative Name: 
                URI:urn:frontend:Node-OPCUA-Server, DNS:frontend
    Signature Algorithm: sha256WithRSAEncryption
         9a:80:b9:81:80:b8:9f:6c:17:24:7d:bc:48:49:0c:4f:f8:41:
         04:b5:72:c6:b3:ac:c4:9a:50:19:c2:25:b8:37:3f:73:b6:ae:
         b5:cb:3e:23:be:e1:d9:4b:d5:14:fc:39:71:07:fc:17:45:b4:
         ce:de:02:b0:17:7d:cd:df:94:e8:2e:70:c7:67:d3:13:36:56:
         12:d2:08:79:85:be:01:7c:c7:01:39:44:c5:a2:2f:77:08:f2:
         c4:a3:f2:56:08:ef:22:62:a0:c4:11:52:be:ea:7d:5f:a1:19:
         83:76:e2:43:22:47:cc:56:2a:09:42:6a:7e:78:31:c1:90:0f:
         df:8d:81:83:c7:13:05:d1:c8:3b:f9:d7:ca:94:4c:cb:40:3f:
         89:45:92:de:50:38:26:76:01:e6:13:ba:04:34:57:53:09:1b:
         73:7c:57:82:b8:5d:1b:da:d0:32:5c:c6:bb:7d:1a:58:72:b9:
         89:6a:e7:2b:41:83:e7:91:2e:df:91:0f:50:2b:1a:af:d5:9c:
         61:5a:72:cd:76:2c:5b:0c:ec:b9:ed:e6:7b:90:2f:fe:d5:c6:
         73:8a:3c:2f:71:f4:2b:c0:3c:77:e8:b4:1c:24:fe:a3:e5:94:
         75:e4:1c:35:7a:cc:ba:61:b6:fb:f4:cf:dd:3e:e6:dc:8e:fa:
         3a:dc:1a:39
-----BEGIN CERTIFICATE-----
MIIEZTCCA02gAwIBAgIUdBYkRBFt8jac00xL3sOsmCWI/zMwDQYJKoZIhvcNAQEL
BQAwZzELMAkGA1UEBhMCRlIxDDAKBgNVBAgMA0lERjEOMAwGA1UEBwwFUGFyaXMx
EjAQBgNVBAoMCU5vZGVPUENVQTENMAsGA1UECwwEVW5pdDEXMBUGA1UEAwwOTm9k
ZU9QQ1VBLVRFU1QwHhcNMjMwMjI4MDg1NDUxWhcNMzgwMjI0MDg1NDUxWjBnMQsw
CQYDVQQGEwJGUjEMMAoGA1UECAwDSURGMQ4wDAYDVQQHDAVQYXJpczESMBAGA1UE
CgwJTm9kZU9QQ1VBMQ0wCwYDVQQLDARVbml0MRcwFQYDVQQDDA5Ob2RlT1BDVUEt
VEVTVDCCASIwDQYJKoZIhvcNAQEBBQADggEPADCCAQoCggEBAK4S9DEbUUo2EUhF
QMpwenaRCeTP9h5uxGm1GpJ1cz6mRisN8GJZrnfSL8ublN77y5dXQSJSgl65lv+H
e1+I3cm9VlmAEzjKa/LtGGEqiVbxG0ebonLpaPFmJIqgyL3dC2Ubt1Jk3/gCjPXD
5QN0cU8ax1ebtUu3P6tIOXNINreZpXbn+k82tcowHg8V0L7pvWwQivLlVZb9bjNc
RZcPkrk5n20aOlJv9jOxXny07vdCrfkB6ZrQ7O2TMktxsylBw/7CM0Joohk7biun
XSzujT64B+5Xeiwg3eZrTcdzTkY55E2xA6I1u3umrs4GFVK/nqbLFDmc76xy/Ycl
RnRBII8CAwEAAaOCAQcwggEDMB0GA1UdDgQWBBRzKWaDQLsgiokaU8xBLuBxzAsJ
YjAfBgNVHSMEGDAWgBRzKWaDQLsgiokaU8xBLuBxzAsJYjAMBgNVHRMBAf8EAjAA
MAsGA1UdDwQEAwIC9DAdBgNVHSUEFjAUBggrBgEFBQcDAgYIKwYBBQUHAwEwUgYJ
YIZIAYb4QgENBEUWQ1NlbGYtc2lnbmVkIGNlcnRpZmljYXRlIGdlbmVyYXRlZCBi
eSBOb2RlLU9QQ1VBIENlcnRpZmljYXRlIHV0aWxpdHkwMwYDVR0RBCwwKoYedXJu
OmZyb250ZW5kOk5vZGUtT1BDVUEtU2VydmVygghmcm9udGVuZDANBgkqhkiG9w0B
AQsFAAOCAQEAmoC5gYC4n2wXJH28SEkMT/hBBLVyxrOsxJpQGcIluDc/c7autcs+
I77h2UvVFPw5cQf8F0W0zt4CsBd9zd+U6C5wx2fTEzZWEtIIeYW+AXzHATlExaIv
dwjyxKPyVgjvImKgxBFSvup9X6EZg3biQyJHzFYqCUJqfngxwZAP342Bg8cTBdHI
O/nXypRMy0A/iUWS3lA4JnYB5hO6BDRXUwkbc3xXgrhdG9rQMlzGu30aWHK5iWrn
K0GD55Eu35EPUCsar9WcYVpyzXYsWwzsue3me5Av/tXGc4o8L3H0K8A8d+i0HCT+
o+WUdeQcNXrMumG2+/TP3T7m3I76OtwaOQ==
-----END CERTIFICATE-----
